target datalayout = "e-m:e-p270:32:32-p271:32:32-p272:64:64-i64:64-i128:128-f80:128-n8:16:32:64-S128"
target triple = "x86_64-pc-linux-gnu"

; Function Attrs: inlinehint nounwind uwtable
define internal float @clamp_simd(float noundef %0) #2 {
  %2 = alloca float, align 4
  store float %0, ptr %2, align 4, !tbaa !45
  %3 = load float, ptr %2, align 4, !tbaa !45
  %4 = call reassoc nsz arcp contract afn float @llvm.maxnum.f32(float %3, float 0.000000e+00)
  %5 = call reassoc nsz arcp contract afn float @llvm.minnum.f32(float %4, float 1.000000e+00)
  ret float %5
}

; Function Attrs: nounwind uwtable
define internal void @_blend_hardlight(ptr noundef %0, ptr noundef %1, ptr noundef %2, ptr noalias noundef %3, i64 noundef %4) #0 {
  %6 = alloca ptr, align 8
  %7 = alloca ptr, align 8
  %8 = alloca ptr, align 8
  %9 = alloca ptr, align 8
  %10 = alloca i64, align 8
  %11 = alloca i64, align 8
  %12 = alloca i64, align 8
  %13 = alloca i32, align 4
  %14 = alloca float, align 4
  %15 = alloca float, align 4
  %16 = alloca i32, align 4
  %17 = alloca float, align 4
  %18 = alloca float, align 4
  store ptr %0, ptr %6, align 8, !tbaa !11
  store ptr %1, ptr %7, align 8, !tbaa !11
  store ptr %2, ptr %8, align 8, !tbaa !11
  store ptr %3, ptr %9, align 8, !tbaa !11
  store i64 %4, ptr %10, align 8, !tbaa !43
  call void @llvm.lifetime.start.p0(i64 8, ptr %11) #8
  store i64 0, ptr %11, align 8, !tbaa !43
  call void @llvm.lifetime.start.p0(i64 8, ptr %12) #8
  store i64 0, ptr %12, align 8, !tbaa !43
  br label %19

19:                                               ; preds = %94, %5
  %20 = load i64, ptr %11, align 8, !tbaa !43
  %21 = load i64, ptr %10, align 8, !tbaa !43
  %22 = icmp ult i64 %20, %21
  br i1 %22, label %24, label %23

23:                                               ; preds = %19
  store i32 2, ptr %13, align 4
  call void @llvm.lifetime.end.p0(i64 8, ptr %12) #8
  call void @llvm.lifetime.end.p0(i64 8, ptr %11) #8
  br label %99

24:                                               ; preds = %19
  call void @llvm.lifetime.start.p0(i64 4, ptr %14) #8
  %25 = load ptr, ptr %9, align 8, !tbaa !11
  %26 = load i64, ptr %11, align 8, !tbaa !43
  %27 = getelementptr inbounds nuw float, ptr %25, i64 %26
  %28 = load float, ptr %27, align 4, !tbaa !45
  store float %28, ptr %14, align 4, !tbaa !45
  call void @llvm.lifetime.start.p0(i64 4, ptr %15) #8
  %29 = load float, ptr %14, align 4, !tbaa !45
  %30 = load float, ptr %14, align 4, !tbaa !45
  %31 = fmul reassoc nsz arcp contract afn float %29, %30
  store float %31, ptr %15, align 4, !tbaa !45
  call void @llvm.lifetime.start.p0(i64 4, ptr %16) #8
  store i32 0, ptr %16, align 4, !tbaa !36
  br label %32

32:                                               ; preds = %85, %24
  %33 = load i32, ptr %16, align 4, !tbaa !36
  %34 = icmp slt i32 %33, 3
  br i1 %34, label %36, label %35

35:                                               ; preds = %32
  store i32 5, ptr %13, align 4
  call void @llvm.lifetime.end.p0(i64 4, ptr %16) #8
  br label %88

36:                                               ; preds = %32
  call void @llvm.lifetime.start.p0(i64 4, ptr %17) #8
  %37 = load ptr, ptr %6, align 8, !tbaa !11
  %38 = load i64, ptr %12, align 8, !tbaa !43
  %39 = load i32, ptr %16, align 4, !tbaa !36
  %40 = sext i32 %39 to i64
  %41 = add i64 %38, %40
  %42 = getelementptr inbounds nuw float, ptr %37, i64 %41
  %43 = load float, ptr %42, align 4, !tbaa !45
  %44 = call reassoc nsz arcp contract afn float @clamp_simd(float noundef %43)
  store float %44, ptr %17, align 4, !tbaa !45
  call void @llvm.lifetime.start.p0(i64 4, ptr %18) #8
  %45 = load ptr, ptr %7, align 8, !tbaa !11
  %46 = load i64, ptr %12, align 8, !tbaa !43
  %47 = load i32, ptr %16, align 4, !tbaa !36
  %48 = sext i32 %47 to i64
  %49 = add i64 %46, %48
  %50 = getelementptr inbounds nuw float, ptr %45, i64 %49
  %51 = load float, ptr %50, align 4, !tbaa !45
  %52 = call reassoc nsz arcp contract afn float @clamp_simd(float noundef %51)
  store float %52, ptr %18, align 4, !tbaa !45
  %53 = load float, ptr %17, align 4, !tbaa !45
  %54 = load float, ptr %15, align 4, !tbaa !45
  %55 = fsub reassoc nsz arcp contract afn float 1.000000e+00, %54
  %56 = fmul reassoc nsz arcp contract afn float %53, %55
  %57 = load float, ptr %18, align 4, !tbaa !45
  %58 = fcmp reassoc nsz arcp contract afn ogt float %57, 5.000000e-01
  br i1 %58, label %59, label %68

59:                                               ; preds = %36
  %60 = load float, ptr %17, align 4, !tbaa !45
  %61 = fsub reassoc nsz arcp contract afn float %60, 5.000000e-01
  %62 = fmul reassoc nsz arcp contract afn float 2.000000e+00, %61
  %63 = fsub reassoc nsz arcp contract afn float 1.000000e+00, %62
  %64 = load float, ptr %18, align 4, !tbaa !45
  %65 = fsub reassoc nsz arcp contract afn float 1.000000e+00, %64
  %66 = fmul reassoc nsz arcp contract afn float %63, %65
  %67 = fsub reassoc nsz arcp contract afn float 1.000000e+00, %66
  br label %73

68:                                               ; preds = %36
  %69 = load float, ptr %17, align 4, !tbaa !45
  %70 = fmul reassoc nsz arcp contract afn float 2.000000e+00, %69
  %71 = load float, ptr %18, align 4, !tbaa !45
  %72 = fmul reassoc nsz arcp contract afn float %70, %71
  br label %73

73:                                               ; preds = %68, %59
  %74 = phi reassoc nsz arcp contract afn float [ %67, %59 ], [ %72, %68 ]
  %75 = load float, ptr %15, align 4, !tbaa !45
  %76 = fmul reassoc nsz arcp contract afn float %74, %75
  %77 = fadd reassoc nsz arcp contract afn float %56, %76
  %78 = call reassoc nsz arcp contract afn float @clamp_simd(float noundef %77)
  %79 = load ptr, ptr %8, align 8, !tbaa !11
  %80 = load i64, ptr %12, align 8, !tbaa !43
  %81 = load i32, ptr %16, align 4, !tbaa !36
  %82 = sext i32 %81 to i64
  %83 = add i64 %80, %82
  %84 = getelementptr inbounds nuw float, ptr %79, i64 %83
  store float %78, ptr %84, align 4, !tbaa !45
  call void @llvm.lifetime.end.p0(i64 4, ptr %18) #8
  call void @llvm.lifetime.end.p0(i64 4, ptr %17) #8
  br label %85

85:                                               ; preds = %73
  %86 = load i32, ptr %16, align 4, !tbaa !36
  %87 = add nsw i32 %86, 1
  store i32 %87, ptr %16, align 4, !tbaa !36
  br label %32

88:                                               ; preds = %35
  %89 = load float, ptr %14, align 4, !tbaa !45
  %90 = load ptr, ptr %8, align 8, !tbaa !11
  %91 = load i64, ptr %12, align 8, !tbaa !43
  %92 = add i64 %91, 3
  %93 = getelementptr inbounds nuw float, ptr %90, i64 %92
  store float %89, ptr %93, align 4, !tbaa !45
  call void @llvm.lifetime.end.p0(i64 4, ptr %15) #8
  call void @llvm.lifetime.end.p0(i64 4, ptr %14) #8
  br label %94

94:                                               ; preds = %88
  %95 = load i64, ptr %11, align 8, !tbaa !43
  %96 = add i64 %95, 1
  store i64 %96, ptr %11, align 8, !tbaa !43
  %97 = load i64, ptr %12, align 8, !tbaa !43
  %98 = add i64 %97, 4
  store i64 %98, ptr %12, align 8, !tbaa !43
  br label %19

99:                                               ; preds = %23
  ret void
}