; Function Attrs: nofree norecurse nosync nounwind memory(argmem: readwrite) uwtable
define internal void @_blend_hardlight(ptr noundef readonly captures(none) %0, ptr noundef readonly captures(none) %1, ptr noundef writeonly captures(none) %2, ptr noalias noundef readonly captures(none) %3, i64 noundef %4) unnamed_addr #10 {
  %.not = icmp eq i64 %4, 0
  br i1 %.not, label %._crit_edge, label %.lr.ph

._crit_edge:                                      ; preds = %9, %5
  ret void

.lr.ph:                                           ; preds = %5, %9
  %.034 = phi i64 [ %12, %9 ], [ 0, %5 ]
  %.02933 = phi i64 [ %13, %9 ], [ 0, %5 ]
  %6 = getelementptr inbounds nuw float, ptr %3, i64 %.034
  %7 = load float, ptr %6, align 4, !tbaa !36
  %8 = fmul reassoc nsz arcp contract afn float %7, %7
  br label %14

9:                                                ; preds = %33
  %10 = or disjoint i64 %.02933, 3
  %11 = getelementptr inbounds nuw float, ptr %2, i64 %10
  store float %7, ptr %11, align 4, !tbaa !36
  %12 = add nuw i64 %.034, 1
  %13 = add i64 %.02933, 4
  %exitcond36.not = icmp eq i64 %12, %4
  br i1 %exitcond36.not, label %._crit_edge, label %.lr.ph

14:                                               ; preds = %.lr.ph, %33
  %indvars.iv = phi i64 [ 0, %.lr.ph ], [ %indvars.iv.next, %33 ]
  %15 = or disjoint i64 %.02933, %indvars.iv
  %16 = getelementptr inbounds nuw float, ptr %0, i64 %15
  %17 = load float, ptr %16, align 4, !tbaa !36
  %18 = tail call reassoc nsz arcp contract afn float @llvm.maxnum.f32(float %17, float 0.000000e+00)
  %19 = tail call reassoc nsz arcp contract afn noundef float @llvm.minnum.f32(float %18, float 1.000000e+00)
  %20 = getelementptr inbounds nuw float, ptr %1, i64 %15
  %21 = load float, ptr %20, align 4, !tbaa !36
  %22 = tail call reassoc nsz arcp contract afn float @llvm.maxnum.f32(float %21, float 0.000000e+00)
  %23 = tail call reassoc nsz arcp contract afn noundef float @llvm.minnum.f32(float %22, float 1.000000e+00)
  %24 = fcmp reassoc nsz arcp contract afn ogt float %23, 5.000000e-01
  %25 = fmul reassoc nsz arcp contract afn float %19, 2.000000e+00
  br i1 %24, label %26, label %31

26:                                               ; preds = %14
  %27 = fsub reassoc nsz arcp contract afn float 2.000000e+00, %25
  %28 = fsub reassoc nsz arcp contract afn float 1.000000e+00, %23
  %29 = fmul reassoc nsz arcp contract afn float %27, %28
  %30 = fsub reassoc nsz arcp contract afn float 1.000000e+00, %29
  br label %33

31:                                               ; preds = %14
  %32 = fmul reassoc nsz arcp contract afn float %25, %23
  br label %33

33:                                               ; preds = %31, %26
  %34 = phi reassoc nsz arcp contract afn float [ %30, %26 ], [ %32, %31 ]
  %35 = fsub reassoc nsz arcp contract afn float %34, %19
  %36 = fmul reassoc nsz arcp contract afn float %8, %35
  %37 = fadd reassoc nsz arcp contract afn float %36, %19
  %38 = tail call reassoc nsz arcp contract afn float @llvm.maxnum.f32(float %37, float 0.000000e+00)
  %39 = tail call reassoc nsz arcp contract afn noundef float @llvm.minnum.f32(float %38, float 1.000000e+00)
  %40 = getelementptr inbounds nuw float, ptr %2, i64 %15
  store float %39, ptr %40, align 4, !tbaa !36
  %indvars.iv.next = add nuw nsw i64 %indvars.iv, 1
  %exitcond.not = icmp eq i64 %indvars.iv.next, 3
  br i1 %exitcond.not, label %9, label %14
}